; Function Attrs: nounwind uwtable
define noalias noundef nonnull ptr @l_Lean_Elab_Term_MatchExpr_getActuals(ptr noundef %0, ptr noundef %1, ptr noundef readonly captures(none) %2, ptr noundef %3) local_unnamed_addr #0 {
  %5 = getelementptr inbounds nuw i8, ptr %1, i64 8
  %6 = load ptr, ptr %5, align 8, !tbaa !4
  %7 = ptrtoint ptr %6 to i64
  %8 = and i64 %7, 1
  %.not = icmp eq i64 %8, 0
  br i1 %.not, label %9, label %lean_obj_tag.exit

9:                                                ; preds = %4
  %.val.i = load i32, ptr %6, align 4, !tbaa !8
  %10 = icmp sgt i32 %.val.i, 0
  br i1 %10, label %11, label %13, !prof !11

11:                                               ; preds = %9
  %12 = add nuw i32 %.val.i, 1
  store i32 %12, ptr %6, align 4, !tbaa !8
  br label %lean_obj_tag.exit.thread

13:                                               ; preds = %9
  %.not.i25 = icmp eq i32 %.val.i, 0
  br i1 %.not.i25, label %lean_obj_tag.exit.thread, label %14

14:                                               ; preds = %13
  tail call void @lean_inc_ref_cold(ptr noundef nonnull %6) #6
  br label %lean_obj_tag.exit.thread

lean_obj_tag.exit:                                ; preds = %4
  %15 = and i64 %7, 8589934590
  %16 = icmp eq i64 %15, 0
  br i1 %16, label %19, label %lean_dec.exit

lean_obj_tag.exit.thread:                         ; preds = %11, %13, %14
  %17 = getelementptr i8, ptr %6, i64 4
  %.val.i27 = load i32, ptr %17, align 4
  %18 = icmp ult i32 %.val.i27, 16777216
  br i1 %18, label %19, label %.thread

19:                                               ; preds = %lean_obj_tag.exit.thread, %lean_obj_tag.exit
  %20 = ptrtoint ptr %0 to i64
  %21 = and i64 %20, 1
  %.not30 = icmp eq i64 %21, 0
  br i1 %.not30, label %22, label %lean_dec.exit22

22:                                               ; preds = %19
  %23 = load i32, ptr %0, align 4, !tbaa !8
  %24 = icmp sgt i32 %23, 1
  br i1 %24, label %25, label %27, !prof !11

25:                                               ; preds = %22
  %26 = add nsw i32 %23, -1
  store i32 %26, ptr %0, align 4, !tbaa !8
  br label %lean_dec.exit22

27:                                               ; preds = %22
  %.not.i = icmp eq i32 %23, 0
  br i1 %.not.i, label %lean_dec.exit22, label %28

28:                                               ; preds = %27
  tail call void @lean_dec_ref_cold(ptr noundef nonnull %0) #6
  br label %lean_dec.exit22

lean_dec.exit22:                                  ; preds = %28, %27, %25, %19
  %29 = load ptr, ptr @l_Lean_Elab_Term_MatchExpr_getFunNamesToMatch___closed__1, align 8, !tbaa !4
  br label %38

.thread:                                          ; preds = %lean_obj_tag.exit.thread
  %30 = load i32, ptr %6, align 4, !tbaa !8
  %31 = icmp sgt i32 %30, 1
  br i1 %31, label %32, label %34, !prof !11

32:                                               ; preds = %.thread
  %33 = add nsw i32 %30, -1
  store i32 %33, ptr %6, align 4, !tbaa !8
  br label %lean_dec.exit

34:                                               ; preds = %.thread
  %.not.i23 = icmp eq i32 %30, 0
  br i1 %.not.i23, label %lean_dec.exit, label %35

35:                                               ; preds = %34
  tail call void @lean_dec_ref_cold(ptr noundef nonnull %6) #6
  br label %lean_dec.exit

lean_dec.exit:                                    ; preds = %lean_obj_tag.exit, %35, %34, %32
  %36 = load ptr, ptr @l_Lean_Elab_Term_MatchExpr_getFunNamesToMatch___closed__1, align 8, !tbaa !4
  %37 = tail call ptr @lean_array_push(ptr noundef %36, ptr noundef %0) #6
  br label %38

38:                                               ; preds = %lean_dec.exit, %lean_dec.exit22
  %.sink = phi ptr [ %37, %lean_dec.exit ], [ %29, %lean_dec.exit22 ]
  %39 = tail call ptr @l_Lean_Elab_Term_MatchExpr_getActuals___lambda__2(ptr noundef nonnull %1, ptr noundef nonnull inttoptr (i64 1 to ptr), ptr noundef %.sink, ptr nonnull poison, ptr noundef %2, ptr noundef %3)
  ret ptr %39
}